target datalayout = "e-m:e-p270:32:32-p271:32:32-p272:64:64-i64:64-i128:128-f80:128-n8:16:32:64-S128"
target triple = "x86_64-pc-linux-gnu"

@Curl_cmalloc = hidden global ptr @malloc, align 8
@Curl_cfree = hidden global ptr @free, align 8
@Curl_crealloc = hidden global ptr @realloc, align 8
@Curl_cstrdup = hidden global ptr @strdup, align 8
@Curl_ccalloc = hidden global ptr @calloc, align 8
@s_lock = internal global i32 0, align 4
@initialized = internal global i32 0, align 4
@easy_init_flags = internal global i64 0, align 8

; Function Attrs: inlinehint nounwind uwtable
define internal void @curl_simple_lock_unlock(ptr noundef %0) #6 {
  %2 = alloca ptr, align 8
  %3 = alloca i32, align 4
  store ptr %0, ptr %2, align 8, !tbaa !9
  %4 = load ptr, ptr %2, align 8, !tbaa !9
  store i32 0, ptr %3, align 4, !tbaa !7
  %5 = load i32, ptr %3, align 4
  store atomic i32 %5, ptr %4 release, align 4
  ret void
}

; Function Attrs: nounwind uwtable
define internal i32 @global_init(i64 noundef %0, i1 noundef zeroext %1) #4 {
  %3 = alloca i32, align 4
  %4 = alloca i64, align 8
  %5 = alloca i8, align 1
  store i64 %0, ptr %4, align 8, !tbaa !3
  %6 = zext i1 %1 to i8
  store i8 %6, ptr %5, align 1, !tbaa !13
  %7 = load i32, ptr @initialized, align 4, !tbaa !7
  %8 = add i32 %7, 1
  store i32 %8, ptr @initialized, align 4, !tbaa !7
  %9 = icmp ne i32 %7, 0
  br i1 %9, label %10, label %11

10:                                               ; preds = %2
  store i32 0, ptr %3, align 4
  br label %38

11:                                               ; preds = %2
  %12 = load i8, ptr %5, align 1, !tbaa !13, !range !15, !noundef !16
  %13 = trunc i8 %12 to i1
  br i1 %13, label %14, label %15

14:                                               ; preds = %11
  store ptr @malloc, ptr @Curl_cmalloc, align 8, !tbaa !9
  store ptr @free, ptr @Curl_cfree, align 8, !tbaa !9
  store ptr @realloc, ptr @Curl_crealloc, align 8, !tbaa !9
  store ptr @strdup, ptr @Curl_cstrdup, align 8, !tbaa !9
  store ptr @calloc, ptr @Curl_ccalloc, align 8, !tbaa !9
  br label %15

15:                                               ; preds = %14, %11
  %16 = call i32 @Curl_trc_init()
  %17 = icmp ne i32 %16, 0
  br i1 %17, label %18, label %21

18:                                               ; preds = %15
  br label %19

19:                                               ; preds = %18
  br label %20

20:                                               ; preds = %19
  br label %35

21:                                               ; preds = %15
  %22 = call i32 @Curl_ssl_init()
  %23 = icmp ne i32 %22, 0
  br i1 %23, label %27, label %24

24:                                               ; preds = %21
  br label %25

25:                                               ; preds = %24
  br label %26

26:                                               ; preds = %25
  br label %35

27:                                               ; preds = %21
  %28 = call i32 @Curl_resolver_global_init()
  %29 = icmp ne i32 %28, 0
  br i1 %29, label %30, label %33

30:                                               ; preds = %27
  br label %31

31:                                               ; preds = %30
  br label %32

32:                                               ; preds = %31
  br label %35

33:                                               ; preds = %27
  %34 = load i64, ptr %4, align 8, !tbaa !3
  store i64 %34, ptr @easy_init_flags, align 8, !tbaa !3
  store i32 0, ptr %3, align 4
  br label %38

35:                                               ; preds = %32, %26, %20
  %36 = load i32, ptr @initialized, align 4, !tbaa !7
  %37 = add i32 %36, -1
  store i32 %37, ptr @initialized, align 4, !tbaa !7
  store i32 2, ptr %3, align 4
  br label %38

38:                                               ; preds = %35, %33, %10
  %39 = load i32, ptr %3, align 4
  ret i32 %39
}

; Function Attrs: inlinehint nounwind uwtable
define internal void @curl_simple_lock_lock(ptr noundef %0) #6 {
  %2 = alloca ptr, align 8
  %3 = alloca i32, align 4
  %4 = alloca i32, align 4
  %5 = alloca i32, align 4
  store ptr %0, ptr %2, align 8, !tbaa !9
  br label %6

6:                                                ; preds = %20, %1
  %7 = load ptr, ptr %2, align 8, !tbaa !9
  store i32 1, ptr %3, align 4, !tbaa !7
  %8 = load i32, ptr %3, align 4
  %9 = atomicrmw xchg ptr %7, i32 %8 acquire, align 4
  store i32 %9, ptr %4, align 4
  %10 = load i32, ptr %4, align 4, !tbaa !7
  %11 = icmp ne i32 %10, 0
  br i1 %11, label %13, label %12

12:                                               ; preds = %6
  br label %21

13:                                               ; preds = %6
  br label %14

14:                                               ; preds = %19, %13
  %15 = load ptr, ptr %2, align 8, !tbaa !9
  %16 = load atomic i32, ptr %15 monotonic, align 4
  store i32 %16, ptr %5, align 4
  %17 = load i32, ptr %5, align 4, !tbaa !7
  %18 = icmp ne i32 %17, 0
  br i1 %18, label %19, label %20

19:                                               ; preds = %14
  call void @llvm.x86.sse2.pause()
  br label %14, !llvm.loop !11

20:                                               ; preds = %14
  br label %6

21:                                               ; preds = %12
  ret void
}

; Function Attrs: nounwind uwtable
define ptr @curl_easy_init() #4 {
  %1 = alloca ptr, align 8
  %2 = alloca i32, align 4
  %3 = alloca ptr, align 8
  %4 = alloca i32, align 4
  call void @llvm.lifetime.start.p0(i64 4, ptr %2) #10
  call void @llvm.lifetime.start.p0(i64 8, ptr %3) #10
  call void @curl_simple_lock_lock(ptr noundef @s_lock)
  %5 = load i32, ptr @initialized, align 4, !tbaa !7
  %6 = icmp ne i32 %5, 0
  br i1 %6, label %16, label %7

7:                                                ; preds = %0
  %8 = call i32 @global_init(i64 noundef 3, i1 noundef zeroext true)
  store i32 %8, ptr %2, align 4, !tbaa !7
  %9 = load i32, ptr %2, align 4, !tbaa !7
  %10 = icmp ne i32 %9, 0
  br i1 %10, label %11, label %15

11:                                               ; preds = %7
  br label %12

12:                                               ; preds = %11
  br label %13

13:                                               ; preds = %12
  br label %14

14:                                               ; preds = %13
  call void @curl_simple_lock_unlock(ptr noundef @s_lock)
  store ptr null, ptr %1, align 8
  store i32 1, ptr %4, align 4
  br label %26

15:                                               ; preds = %7
  br label %16

16:                                               ; preds = %15, %0
  call void @curl_simple_lock_unlock(ptr noundef @s_lock)
  %17 = call i32 @Curl_open(ptr noundef %3)
  store i32 %17, ptr %2, align 4, !tbaa !7
  %18 = load i32, ptr %2, align 4, !tbaa !7
  %19 = icmp ne i32 %18, 0
  br i1 %19, label %20, label %24

20:                                               ; preds = %16
  br label %21

21:                                               ; preds = %20
  br label %22

22:                                               ; preds = %21
  br label %23

23:                                               ; preds = %22
  store ptr null, ptr %1, align 8
  store i32 1, ptr %4, align 4
  br label %26

24:                                               ; preds = %16
  %25 = load ptr, ptr %3, align 8, !tbaa !21
  store ptr %25, ptr %1, align 8
  store i32 1, ptr %4, align 4
  br label %26

26:                                               ; preds = %24, %23, %14
  call void @llvm.lifetime.end.p0(i64 8, ptr %3) #10
  call void @llvm.lifetime.end.p0(i64 4, ptr %2) #10
  %27 = load ptr, ptr %1, align 8
  ret ptr %27
}