; Function Attrs: nounwind uwtable
define ptr @curl_easy_init() local_unnamed_addr #5 {
  %1 = alloca ptr, align 8
  call void @llvm.lifetime.start.p0(i64 8, ptr nonnull %1) #11
  %2 = atomicrmw xchg ptr @s_lock, i32 1 acquire, align 4
  %.not2.i = icmp eq i32 %2, 0
  br i1 %.not2.i, label %curl_simple_lock_lock.exit, label %.preheader.i

.loopexit.i:                                      ; preds = %.lr.ph.i, %.preheader.i
  %3 = atomicrmw xchg ptr @s_lock, i32 1 acquire, align 4
  %.not.i = icmp eq i32 %3, 0
  br i1 %.not.i, label %curl_simple_lock_lock.exit, label %.preheader.i

.preheader.i:                                     ; preds = %0, %.loopexit.i
  %4 = load atomic i32, ptr @s_lock monotonic, align 4
  %.not41.i = icmp eq i32 %4, 0
  br i1 %.not41.i, label %.loopexit.i, label %.lr.ph.i

.lr.ph.i:                                         ; preds = %.preheader.i, %.lr.ph.i
  tail call void @llvm.x86.sse2.pause()
  %5 = load atomic i32, ptr @s_lock monotonic, align 4
  %.not4.i = icmp eq i32 %5, 0
  br i1 %.not4.i, label %.loopexit.i, label %.lr.ph.i, !llvm.loop !3

curl_simple_lock_lock.exit:                       ; preds = %.loopexit.i, %0
  %6 = load i32, ptr @initialized, align 4, !tbaa !5
  %.not = icmp eq i32 %6, 0
  br i1 %.not, label %7, label %global_init.exit.thread

7:                                                ; preds = %curl_simple_lock_lock.exit
  store i32 1, ptr @initialized, align 4, !tbaa !5
  store ptr @malloc, ptr @Curl_cmalloc, align 8, !tbaa !9
  store ptr @free, ptr @Curl_cfree, align 8, !tbaa !9
  store ptr @realloc, ptr @Curl_crealloc, align 8, !tbaa !9
  store ptr @strdup, ptr @Curl_cstrdup, align 8, !tbaa !9
  store ptr @calloc, ptr @Curl_ccalloc, align 8, !tbaa !9
  %8 = tail call i32 @Curl_trc_init() #11
  %.not3.i = icmp eq i32 %8, 0
  br i1 %.not3.i, label %9, label %13

9:                                                ; preds = %7
  %10 = tail call i32 @Curl_ssl_init() #11
  %.not4.i5 = icmp eq i32 %10, 0
  br i1 %.not4.i5, label %13, label %11

11:                                               ; preds = %9
  %12 = tail call i32 @Curl_resolver_global_init() #11
  %.not5.i = icmp eq i32 %12, 0
  br i1 %.not5.i, label %global_init.exit.thread, label %13

13:                                               ; preds = %11, %9, %7
  %14 = load i32, ptr @initialized, align 4, !tbaa !5
  %15 = add i32 %14, -1
  store i32 %15, ptr @initialized, align 4, !tbaa !5
  store atomic i32 0, ptr @s_lock release, align 4
  br label %18

global_init.exit.thread:                          ; preds = %11, %curl_simple_lock_lock.exit
  store atomic i32 0, ptr @s_lock release, align 4
  %16 = call i32 @Curl_open(ptr noundef nonnull %1) #11
  %.not3 = icmp eq i32 %16, 0
  %17 = load ptr, ptr %1, align 8
  %spec.select = select i1 %.not3, ptr %17, ptr null
  br label %18

18:                                               ; preds = %global_init.exit.thread, %13
  %.0 = phi ptr [ null, %13 ], [ %spec.select, %global_init.exit.thread ]
  call void @llvm.lifetime.end.p0(i64 8, ptr nonnull %1) #11
  ret ptr %.0
}